target datalayout = "e-m:e-p270:32:32-p271:32:32-p272:64:64-i64:64-i128:128-f80:128-n8:16:32:64-S128"
target triple = "x86_64-pc-linux-gnu"

%struct.H5B_class_t = type { i32, i64, ptr, ptr, ptr, ptr, ptr, ptr, i8, i8, i32, ptr, ptr, ptr, ptr }
%struct.H5O_stab_t = type { i64, i64 }
%struct.H5G_t = type { ptr, %struct.H5O_loc_t, %struct.H5G_name_t }
%struct.H5O_loc_t = type { ptr, i64, i8 }
%struct.H5G_name_t = type { ptr, ptr, i32 }
%struct.H5G_bt_common_t = type { ptr, ptr, i64 }

@.str = private unnamed_addr constant [101 x i8] c"generated/home/dtcxzyw/WorkSpace/Projects/compilers/llvm-opt-benchmark/bench/hdf5/hdf5/src/H5Gtest.c\00", align 1
@H5E_ARGS_g = external global i64, align 8
@H5E_BADTYPE_g = external global i64, align 8
@.str.1 = private unnamed_addr constant [12 x i8] c"not a group\00", align 1
@H5E_SYM_g = external global i64, align 8
@H5E_CANTINIT_g = external global i64, align 8
@.str.3 = private unnamed_addr constant [29 x i8] c"unable to read object header\00", align 1
@H5E_BADMESG_g = external global i64, align 8
@H5B_SNODE = external global [1 x %struct.H5B_class_t], align 16
@__func__.H5G__verify_cached_stabs_test = private unnamed_addr constant [30 x i8] c"H5G__verify_cached_stabs_test\00", align 1
@.str.28 = private unnamed_addr constant [28 x i8] c"can't get symbol table info\00", align 1
@H5E_CANTNEXT_g = external global i64, align 8
@.str.29 = private unnamed_addr constant [26 x i8] c"iteration operator failed\00", align 1

; Function Attrs: nounwind uwtable
define i32 @H5G__verify_cached_stabs_test(i64 noundef %0) #0 {
  %2 = alloca i64, align 8
  %3 = alloca ptr, align 8
  %4 = alloca i32, align 4
  %5 = alloca %struct.H5O_stab_t, align 8
  %6 = alloca %struct.H5G_bt_common_t, align 8
  %7 = alloca i64, align 8
  %8 = alloca i32, align 4
  %9 = alloca i8, align 1
  store i64 %0, ptr %2, align 8
  store ptr null, ptr %3, align 8
  call void @llvm.memset.p0.i64(ptr align 8 %6, i8 0, i64 24, i1 false)
  store i64 -1, ptr %7, align 8
  store i32 0, ptr %8, align 4
  store i8 0, ptr %9, align 1
  %10 = load i64, ptr %2, align 8
  %11 = call ptr @H5VL_object_verify(i64 noundef %10, i32 noundef 2)
  store ptr %11, ptr %3, align 8
  %12 = icmp eq ptr null, %11
  br i1 %12, label %13, label %28

13:                                               ; preds = %1
  br label %14

14:                                               ; preds = %13
  br label %15

15:                                               ; preds = %14
  br label %16

16:                                               ; preds = %15
  %17 = load i64, ptr @H5E_ARGS_g, align 8
  %18 = load i64, ptr @H5E_BADTYPE_g, align 8
  %19 = call i32 (ptr, ptr, i32, i64, i64, ptr, ...) @H5E_printf_stack(ptr noundef @.str, ptr noundef @__func__.H5G__verify_cached_stabs_test, i32 noundef 811, i64 noundef %17, i64 noundef %18, ptr noundef @.str.1)
  br label %20

20:                                               ; preds = %16
  store i8 1, ptr %9, align 1
  %21 = load i8, ptr %9, align 1
  %22 = trunc i8 %21 to i1
  %23 = zext i1 %22 to i8
  store i8 %23, ptr %9, align 1
  br label %24

24:                                               ; preds = %20
  br label %25

25:                                               ; preds = %24
  store i32 -1, ptr %8, align 4
  br label %104

26:                                               ; No predecessors!
  br label %27

27:                                               ; preds = %26
  br label %28

28:                                               ; preds = %27, %1
  %29 = load ptr, ptr %3, align 8
  %30 = getelementptr inbounds %struct.H5G_t, ptr %29, i32 0, i32 1
  %31 = getelementptr inbounds %struct.H5O_loc_t, ptr %30, i32 0, i32 1
  %32 = load i64, ptr %31, align 8
  call void @H5AC_tag(i64 noundef %32, ptr noundef %7)
  %33 = load ptr, ptr %3, align 8
  %34 = getelementptr inbounds %struct.H5G_t, ptr %33, i32 0, i32 1
  %35 = call i32 @H5O_msg_exists(ptr noundef %34, i32 noundef 17)
  store i32 %35, ptr %4, align 4
  %36 = icmp slt i32 %35, 0
  br i1 %36, label %37, label %52

37:                                               ; preds = %28
  br label %38

38:                                               ; preds = %37
  br label %39

39:                                               ; preds = %38
  br label %40

40:                                               ; preds = %39
  %41 = load i64, ptr @H5E_SYM_g, align 8
  %42 = load i64, ptr @H5E_CANTINIT_g, align 8
  %43 = call i32 (ptr, ptr, i32, i64, i64, ptr, ...) @H5E_printf_stack(ptr noundef @.str, ptr noundef @__func__.H5G__verify_cached_stabs_test, i32 noundef 819, i64 noundef %41, i64 noundef %42, ptr noundef @.str.3)
  br label %44

44:                                               ; preds = %40
  store i8 1, ptr %9, align 1
  %45 = load i8, ptr %9, align 1
  %46 = trunc i8 %45 to i1
  %47 = zext i1 %46 to i8
  store i8 %47, ptr %9, align 1
  br label %48

48:                                               ; preds = %44
  br label %49

49:                                               ; preds = %48
  store i32 -1, ptr %8, align 4
  br label %104

50:                                               ; No predecessors!
  br label %51

51:                                               ; preds = %50
  br label %52

52:                                               ; preds = %51, %28
  %53 = load i32, ptr %4, align 4
  %54 = icmp ne i32 %53, 0
  br i1 %54, label %58, label %55

55:                                               ; preds = %52
  br label %56

56:                                               ; preds = %55
  store i32 0, ptr %8, align 4
  br label %104

57:                                               ; No predecessors!
  br label %58

58:                                               ; preds = %57, %52
  %59 = load ptr, ptr %3, align 8
  %60 = getelementptr inbounds %struct.H5G_t, ptr %59, i32 0, i32 1
  %61 = call ptr @H5O_msg_read(ptr noundef %60, i32 noundef 17, ptr noundef %5)
  %62 = icmp eq ptr null, %61
  br i1 %62, label %63, label %78

63:                                               ; preds = %58
  br label %64

64:                                               ; preds = %63
  br label %65

65:                                               ; preds = %64
  br label %66

66:                                               ; preds = %65
  %67 = load i64, ptr @H5E_SYM_g, align 8
  %68 = load i64, ptr @H5E_BADMESG_g, align 8
  %69 = call i32 (ptr, ptr, i32, i64, i64, ptr, ...) @H5E_printf_stack(ptr noundef @.str, ptr noundef @__func__.H5G__verify_cached_stabs_test, i32 noundef 827, i64 noundef %67, i64 noundef %68, ptr noundef @.str.28)
  br label %70

70:                                               ; preds = %66
  store i8 1, ptr %9, align 1
  %71 = load i8, ptr %9, align 1
  %72 = trunc i8 %71 to i1
  %73 = zext i1 %72 to i8
  store i8 %73, ptr %9, align 1
  br label %74

74:                                               ; preds = %70
  br label %75

75:                                               ; preds = %74
  store i32 -1, ptr %8, align 4
  br label %104

76:                                               ; No predecessors!
  br label %77

77:                                               ; preds = %76
  br label %78

78:                                               ; preds = %77, %58
  %79 = load ptr, ptr %3, align 8
  %80 = getelementptr inbounds %struct.H5G_t, ptr %79, i32 0, i32 1
  %81 = getelementptr inbounds %struct.H5O_loc_t, ptr %80, i32 0, i32 0
  %82 = load ptr, ptr %81, align 8
  %83 = getelementptr inbounds %struct.H5O_stab_t, ptr %5, i32 0, i32 0
  %84 = load i64, ptr %83, align 8
  %85 = call i32 @H5B_iterate(ptr noundef %82, ptr noundef @H5B_SNODE, i64 noundef %84, ptr noundef @H5G__verify_cached_stabs_test_cb, ptr noundef %6)
  store i32 %85, ptr %8, align 4
  %86 = icmp slt i32 %85, 0
  br i1 %86, label %87, label %102

87:                                               ; preds = %78
  br label %88

88:                                               ; preds = %87
  br label %89

89:                                               ; preds = %88
  br label %90

90:                                               ; preds = %89
  %91 = load i64, ptr @H5E_SYM_g, align 8
  %92 = load i64, ptr @H5E_CANTNEXT_g, align 8
  %93 = call i32 (ptr, ptr, i32, i64, i64, ptr, ...) @H5E_printf_stack(ptr noundef @.str, ptr noundef @__func__.H5G__verify_cached_stabs_test, i32 noundef 832, i64 noundef %91, i64 noundef %92, ptr noundef @.str.29)
  br label %94

94:                                               ; preds = %90
  store i8 1, ptr %9, align 1
  %95 = load i8, ptr %9, align 1
  %96 = trunc i8 %95 to i1
  %97 = zext i1 %96 to i8
  store i8 %97, ptr %9, align 1
  br label %98

98:                                               ; preds = %94
  br label %99

99:                                               ; preds = %98
  store i32 -1, ptr %8, align 4
  br label %104

100:                                              ; No predecessors!
  br label %101

101:                                              ; preds = %100
  br label %102

102:                                              ; preds = %101, %78
  %103 = load i64, ptr %7, align 8
  call void @H5AC_tag(i64 noundef %103, ptr noundef null)
  br label %104

104:                                              ; preds = %102, %99, %75, %56, %49, %25
  %105 = load i32, ptr %8, align 4
  ret i32 %105
}