; Function Attrs: nounwind uwtable
define range(i32 -1, -2147483648) i32 @H5G__verify_cached_stabs_test(i64 noundef %0) local_unnamed_addr #0 {
  %2 = alloca %struct.H5O_stab_t, align 8
  %3 = alloca %struct.H5G_bt_common_t, align 8
  %4 = alloca i64, align 8
  call void @llvm.memset.p0.i64(ptr noundef nonnull align 8 dereferenceable(24) %3, i8 0, i64 24, i1 false)
  store i64 -1, ptr %4, align 8
  %5 = tail call ptr @H5VL_object_verify(i64 noundef %0, i32 noundef 2) #4
  %6 = icmp eq ptr %5, null
  br i1 %6, label %7, label %11

7:                                                ; preds = %1
  %8 = load i64, ptr @H5E_ARGS_g, align 8
  %9 = load i64, ptr @H5E_BADTYPE_g, align 8
  %10 = tail call i32 (ptr, ptr, i32, i64, i64, ptr, ...) @H5E_printf_stack(ptr noundef nonnull @.str, ptr noundef nonnull @__func__.H5G__verify_cached_stabs_test, i32 noundef 811, i64 noundef %8, i64 noundef %9, ptr noundef nonnull @.str.1) #4
  br label %40

11:                                               ; preds = %1
  %12 = getelementptr inbounds i8, ptr %5, i64 8
  %13 = getelementptr inbounds i8, ptr %5, i64 16
  %14 = load i64, ptr %13, align 8
  call void @H5AC_tag(i64 noundef %14, ptr noundef nonnull %4) #4
  %15 = call i32 @H5O_msg_exists(ptr noundef nonnull %12, i32 noundef 17) #4
  %16 = icmp slt i32 %15, 0
  br i1 %16, label %17, label %21

17:                                               ; preds = %11
  %18 = load i64, ptr @H5E_SYM_g, align 8
  %19 = load i64, ptr @H5E_CANTINIT_g, align 8
  %20 = call i32 (ptr, ptr, i32, i64, i64, ptr, ...) @H5E_printf_stack(ptr noundef nonnull @.str, ptr noundef nonnull @__func__.H5G__verify_cached_stabs_test, i32 noundef 819, i64 noundef %18, i64 noundef %19, ptr noundef nonnull @.str.3) #4
  br label %40

21:                                               ; preds = %11
  %.not = icmp eq i32 %15, 0
  br i1 %.not, label %40, label %22

22:                                               ; preds = %21
  %23 = call ptr @H5O_msg_read(ptr noundef nonnull %12, i32 noundef 17, ptr noundef nonnull %2) #4
  %24 = icmp eq ptr %23, null
  br i1 %24, label %25, label %29

25:                                               ; preds = %22
  %26 = load i64, ptr @H5E_SYM_g, align 8
  %27 = load i64, ptr @H5E_BADMESG_g, align 8
  %28 = call i32 (ptr, ptr, i32, i64, i64, ptr, ...) @H5E_printf_stack(ptr noundef nonnull @.str, ptr noundef nonnull @__func__.H5G__verify_cached_stabs_test, i32 noundef 827, i64 noundef %26, i64 noundef %27, ptr noundef nonnull @.str.28) #4
  br label %40

29:                                               ; preds = %22
  %30 = load ptr, ptr %12, align 8
  %31 = load i64, ptr %2, align 8
  %32 = call i32 @H5B_iterate(ptr noundef %30, ptr noundef nonnull @H5B_SNODE, i64 noundef %31, ptr noundef nonnull @H5G__verify_cached_stabs_test_cb, ptr noundef nonnull %3) #4
  %33 = icmp slt i32 %32, 0
  br i1 %33, label %34, label %38

34:                                               ; preds = %29
  %35 = load i64, ptr @H5E_SYM_g, align 8
  %36 = load i64, ptr @H5E_CANTNEXT_g, align 8
  %37 = call i32 (ptr, ptr, i32, i64, i64, ptr, ...) @H5E_printf_stack(ptr noundef nonnull @.str, ptr noundef nonnull @__func__.H5G__verify_cached_stabs_test, i32 noundef 832, i64 noundef %35, i64 noundef %36, ptr noundef nonnull @.str.29) #4
  br label %40

38:                                               ; preds = %29
  %39 = load i64, ptr %4, align 8
  call void @H5AC_tag(i64 noundef %39, ptr noundef null) #4
  br label %40

40:                                               ; preds = %21, %38, %34, %25, %17, %7
  %.0 = phi i32 [ -1, %7 ], [ -1, %17 ], [ -1, %25 ], [ -1, %34 ], [ %32, %38 ], [ 0, %21 ]
  ret i32 %.0
}